;/////////////////////////////////////////////////////////////////////////////////
;// Code Generator: BoostC Compiler - http://www.sourceboost.com
;// Version       : 7.03
;// License Type  : Pro License
;// Limitations   : PIC12,PIC16 max code size:Unlimited, max RAM banks:Unlimited
;/////////////////////////////////////////////////////////////////////////////////

	ORG 0x00000000
0000  2AB8  	GOTO	_startup
	ORG 0x00000004
0004  00FF  	MOVWF Int1Context
0005  0E03  	SWAPF STATUS, W
0006  1283  	BCF STATUS, RP0
0007  1303  	BCF STATUS, RP1
0008  00B4  	MOVWF Int1BContext
0009  0E0A  	SWAPF PCLATH, W
000A  00B5  	MOVWF Int1BContext+D'1'
000B  0E04  	SWAPF FSR, W
000C  00B6  	MOVWF Int1BContext+D'2'
000D  118A  	BCF PCLATH,3
000E  120A  	BCF PCLATH,4
000F  2AE0  	GOTO	interrupt
	ORG 0x00000010
0010        delay_us_00000
0010        ; { delay_us ; function begin
0010        label1
0010  0000  	NOP
0011  0000  	NOP
0012  0BCC  	DECFSZ delay_us_00000_arg_del, F
0013  2810  	GOTO	label1
0014  0008  	RETURN
0015        ; } delay_us function end

	ORG 0x00000015
0015        delay_ms_00000
0015        ; { delay_ms ; function begin
0015  08C9  	MOVF delay_ms_00000_arg_del, F
0016  1D03  	BTFSS STATUS,Z
0017  2819  	GOTO	label2
0018  0008  	RETURN
0019        label2
0019  30F5  	MOVLW 0xF5
001A        label3
001A  0000  	NOP
001B  0000  	NOP
001C  0000  	NOP
001D  0000  	NOP
001E  0000  	NOP
001F  0000  	NOP
0020  0000  	NOP
0021  0000  	NOP
0022  0000  	NOP
0023  0000  	NOP
0024  0000  	NOP
0025  0000  	NOP
0026  0000  	NOP
0027  0000  	NOP
0028  0000  	NOP
0029  0000  	NOP
002A  3EFF  	ADDLW 0xFF
002B  1D03  	BTFSS STATUS,Z
002C  281A  	GOTO	label3
002D  0000  	NOP
002E  0000  	NOP
002F  0000  	NOP
0030  0000  	NOP
0031  0000  	NOP
0032  0000  	NOP
0033  0000  	NOP
0034  0000  	NOP
0035  0000  	NOP
0036  0000  	NOP
0037  0000  	NOP
0038  0000  	NOP
0039  0000  	NOP
003A  0BC9  	DECFSZ delay_ms_00000_arg_del, F
003B  2819  	GOTO	label2
003C  0008  	RETURN
003D        ; } delay_ms function end

	ORG 0x0000003D
003D        delay_10us_00000
003D        ; { delay_10us ; function begin
003D  08CF  	MOVF delay_10us_00000_arg_del, F
003E  1D03  	BTFSS STATUS,Z
003F  2841  	GOTO	label4
0040  0008  	RETURN
0041        label4
0041  3009  	MOVLW 0x09
0042        label5
0042  0000  	NOP
0043  3EFF  	ADDLW 0xFF
0044  1D03  	BTFSS STATUS,Z
0045  2842  	GOTO	label5
0046  0000  	NOP
0047  0000  	NOP
0048  0BCF  	DECFSZ delay_10us_00000_arg_del, F
0049  2841  	GOTO	label4
004A  0008  	RETURN
004B        ; } delay_10us function end

	ORG 0x0000004B
004B        delay_s_00000
004B        ; { delay_s ; function begin
004B        label6
004B  30FA  	MOVLW 0xFA
004C  00C9  	MOVWF delay_ms_00000_arg_del
004D  2015  	CALL delay_ms_00000
004E  30FA  	MOVLW 0xFA
004F  00C9  	MOVWF delay_ms_00000_arg_del
0050  2015  	CALL delay_ms_00000
0051  30FA  	MOVLW 0xFA
0052  00C9  	MOVWF delay_ms_00000_arg_del
0053  2015  	CALL delay_ms_00000
0054  30FA  	MOVLW 0xFA
0055  00C9  	MOVWF delay_ms_00000_arg_del
0056  2015  	CALL delay_ms_00000
0057  0BC7  	DECFSZ delay_s_00000_arg_del, F
0058  284B  	GOTO	label6
0059  0008  	RETURN
005A        ; } delay_s function end

	ORG 0x0000005A
005A        __div_16_1_00003
005A        ; { __div_16_16 ; function begin
005A  01D2  	CLRF __div_16_1_00003_1_r
005B  01D3  	CLRF __div_16_1_00003_1_r+D'1'
005C  01D5  	CLRF CompTempVarRet214
005D  01D6  	CLRF CompTempVarRet214+D'1'
005E  01D4  	CLRF __div_16_1_00003_1_i
005F        label7
005F  1A54  	BTFSC __div_16_1_00003_1_i,4
0060  0008  	RETURN
0061  1003  	BCF STATUS,C
0062  0DD5  	RLF CompTempVarRet214, F
0063  0DD6  	RLF CompTempVarRet214+D'1', F
0064  0DCC  	RLF __div_16_1_00003_arg_a, F
0065  0DCD  	RLF __div_16_1_00003_arg_a+D'1', F
0066  0DD2  	RLF __div_16_1_00003_1_r, F
0067  0DD3  	RLF __div_16_1_00003_1_r+D'1', F
0068  084F  	MOVF __div_16_1_00003_arg_b+D'1', W
0069  0253  	SUBWF __div_16_1_00003_1_r+D'1', W
006A  1D03  	BTFSS STATUS,Z
006B  286E  	GOTO	label8
006C  084E  	MOVF __div_16_1_00003_arg_b, W
006D  0252  	SUBWF __div_16_1_00003_1_r, W
006E        label8
006E  1C03  	BTFSS STATUS,C
006F  2877  	GOTO	label9
0070  084E  	MOVF __div_16_1_00003_arg_b, W
0071  02D2  	SUBWF __div_16_1_00003_1_r, F
0072  084F  	MOVF __div_16_1_00003_arg_b+D'1', W
0073  1C03  	BTFSS STATUS,C
0074  03D3  	DECF __div_16_1_00003_1_r+D'1', F
0075  02D3  	SUBWF __div_16_1_00003_1_r+D'1', F
0076  1455  	BSF CompTempVarRet214,0
0077        label9
0077  0AD4  	INCF __div_16_1_00003_1_i, F
0078  285F  	GOTO	label7
0079        ; } __div_16_16 function end

	ORG 0x00000079
0079        Wdt_Delay__0003E
0079        ; { Wdt_Delay_Ms ; function begin
0079  01C8  	CLRF Wdt_Delay__0003E_1_i
007A        label10
007A  0847  	MOVF Wdt_Delay__0003E_arg_delay, W
007B  0248  	SUBWF Wdt_Delay__0003E_1_i, W
007C  1803  	BTFSC STATUS,C
007D  0008  	RETURN
007E  0064  	CLRWDT
007F  3001  	MOVLW 0x01
0080  00C9  	MOVWF delay_ms_00000_arg_del
0081  2015  	CALL delay_ms_00000
0082  0AC8  	INCF Wdt_Delay__0003E_1_i, F
0083  287A  	GOTO	label10
0084        ; } Wdt_Delay_Ms function end

	ORG 0x00000084
0084        FC_CAL_Sam_00052
0084        ; { FC_CAL_Sample_ADC ; function begin
0084  3004  	MOVLW 0x04
0085  041F  	IORWF gbl_adcon0, W
0086  009F  	MOVWF gbl_adcon0
0087        label11
0087  191F  	BTFSC gbl_adcon0,2
0088  2887  	GOTO	label11
0089  08C8  	MOVF FC_CAL_Sam_00052_arg_Sample_Mode, F
008A  1903  	BTFSC STATUS,Z
008B  28A0  	GOTO	label12
008C  081E  	MOVF gbl_adresh, W
008D  00C9  	MOVWF FC_CAL_Sam_00052_1_iRetVal
008E  01CA  	CLRF FC_CAL_Sam_00052_1_iRetVal+D'1'
008F  0DC9  	RLF FC_CAL_Sam_00052_1_iRetVal, F
0090  0DCA  	RLF FC_CAL_Sam_00052_1_iRetVal+D'1', F
0091  0DC9  	RLF FC_CAL_Sam_00052_1_iRetVal, F
0092  0DCA  	RLF FC_CAL_Sam_00052_1_iRetVal+D'1', F
0093  30FC  	MOVLW 0xFC
0094  05C9  	ANDWF FC_CAL_Sam_00052_1_iRetVal, F
0095  1683  	BSF STATUS, RP0
0096  0C1E  	RRF gbl_adresl, W
0097  1283  	BCF STATUS, RP0
0098  00CB  	MOVWF CompTempVar2198
0099  0CCB  	RRF CompTempVar2198, F
009A  0ECB  	SWAPF CompTempVar2198, F
009B  3003  	MOVLW 0x03
009C  054B  	ANDWF CompTempVar2198, W
009D  04C9  	IORWF FC_CAL_Sam_00052_1_iRetVal, F
009E  08CA  	MOVF FC_CAL_Sam_00052_1_iRetVal+D'1', F
009F  28A3  	GOTO	label13
00A0        label12
00A0  081E  	MOVF gbl_adresh, W
00A1  00C9  	MOVWF FC_CAL_Sam_00052_1_iRetVal
00A2  01CA  	CLRF FC_CAL_Sam_00052_1_iRetVal+D'1'
00A3        label13
00A3  0849  	MOVF FC_CAL_Sam_00052_1_iRetVal, W
00A4  00CB  	MOVWF CompTempVarRet2195
00A5  084A  	MOVF FC_CAL_Sam_00052_1_iRetVal+D'1', W
00A6  00CC  	MOVWF CompTempVarRet2195+D'1'
00A7  0008  	RETURN
00A8        ; } FC_CAL_Sample_ADC function end

	ORG 0x000000A8
00A8        FC_CAL_Ena_00051
00A8        ; { FC_CAL_Enable_ADC ; function begin
00A8  0848  	MOVF FC_CAL_Ena_00051_arg_Channel, W
00A9  3A00  	XORLW 0x00
00AA  1D03  	BTFSS STATUS,Z
00AB  28BC  	GOTO	label15
00AC  3001  	MOVLW 0x01
00AD  00C6  	MOVWF gbl_tris_mask
00AE  3000  	MOVLW HIGH(gbl_trisa+D'0')
00AF  00BA  	MOVWF gbl_tris_reg+D'1'
00B0  3085  	MOVLW LOW(gbl_trisa+D'0')
00B1  00B9  	MOVWF gbl_tris_reg
00B2  08CA  	MOVF FC_CAL_Ena_00051_arg_Vref, F
00B3  1D03  	BTFSS STATUS,Z
00B4  28B9  	GOTO	label14
00B5  300E  	MOVLW 0x0E
00B6  1683  	BSF STATUS, RP0
00B7  009F  	MOVWF gbl_adcon1
00B8  28BC  	GOTO	label15
00B9        label14
00B9  3005  	MOVLW 0x05
00BA  1683  	BSF STATUS, RP0
00BB  009F  	MOVWF gbl_adcon1
00BC        label15
00BC  1383  	BCF STATUS,IRP
00BD  1283  	BCF STATUS, RP0
00BE  183A  	BTFSC gbl_tris_reg+D'1',0
00BF  1783  	BSF STATUS,IRP
00C0  0839  	MOVF gbl_tris_reg, W
00C1  0084  	MOVWF FSR
00C2  0800  	MOVF INDF, W
00C3  00C5  	MOVWF gbl_old_tris
00C4  0846  	MOVF gbl_tris_mask, W
00C5  0445  	IORWF gbl_old_tris, W
00C6  00CC  	MOVWF CompTempVar2189
00C7  0080  	MOVWF INDF
00C8  0849  	MOVF FC_CAL_Ena_00051_arg_Conv_Speed, W
00C9  00CC  	MOVWF CompTempVar2190
00CA  01CD  	CLRF CompTempVar2191
00CB  0DCC  	RLF CompTempVar2190, F
00CC  0DCD  	RLF CompTempVar2191, F
00CD  0DCC  	RLF CompTempVar2190, F
00CE  0DCD  	RLF CompTempVar2191, F
00CF  0DCC  	RLF CompTempVar2190, F
00D0  0DCD  	RLF CompTempVar2191, F
00D1  0DCC  	RLF CompTempVar2190, F
00D2  0DCD  	RLF CompTempVar2191, F
00D3  0DCC  	RLF CompTempVar2190, F
00D4  0DCD  	RLF CompTempVar2191, F
00D5  0DCC  	RLF CompTempVar2190, F
00D6  0DCD  	RLF CompTempVar2191, F
00D7  30C0  	MOVLW 0xC0
00D8  054C  	ANDWF CompTempVar2190, W
00D9  3801  	IORLW 0x01
00DA  00CF  	MOVWF CompTempVar2194
00DB  0848  	MOVF FC_CAL_Ena_00051_arg_Channel, W
00DC  00CE  	MOVWF CompTempVar2193
00DD  0DCE  	RLF CompTempVar2193, F
00DE  0DCE  	RLF CompTempVar2193, F
00DF  0DCE  	RLF CompTempVar2193, F
00E0  30F8  	MOVLW 0xF8
00E1  054E  	ANDWF CompTempVar2193, W
00E2  044F  	IORWF CompTempVar2194, W
00E3  009F  	MOVWF gbl_adcon0
00E4  084B  	MOVF FC_CAL_Ena_00051_arg_T_Charge, W
00E5  00CC  	MOVWF delay_us_00000_arg_del
00E6  2010  	CALL delay_us_00000
00E7  0008  	RETURN
00E8        ; } FC_CAL_Enable_ADC function end

	ORG 0x000000E8
00E8        FC_CAL_Dis_00053
00E8        ; { FC_CAL_Disable_ADC ; function begin
00E8  1383  	BCF STATUS,IRP
00E9  1283  	BCF STATUS, RP0
00EA  1303  	BCF STATUS, RP1
00EB  183A  	BTFSC gbl_tris_reg+D'1',0
00EC  1783  	BSF STATUS,IRP
00ED  0839  	MOVF gbl_tris_reg, W
00EE  0084  	MOVWF FSR
00EF  0845  	MOVF gbl_old_tris, W
00F0  0080  	MOVWF INDF
00F1  3007  	MOVLW 0x07
00F2  1683  	BSF STATUS, RP0
00F3  009F  	MOVWF gbl_adcon1
00F4  1283  	BCF STATUS, RP0
00F5  019F  	CLRF gbl_adcon0
00F6  0008  	RETURN
00F7        ; } FC_CAL_Disable_ADC function end

	ORG 0x000000F7
00F7        FCD_LCDDis_00060
00F7        ; { FCD_LCDDisplay0_RawSend ; function begin
00F7  1007  	BCF gbl_portc,0
00F8  1087  	BCF gbl_portc,1
00F9  1107  	BCF gbl_portc,2
00FA  1187  	BCF gbl_portc,3
00FB  1207  	BCF gbl_portc,4
00FC  1287  	BCF gbl_portc,5
00FD  0E4C  	SWAPF FCD_LCDDis_00060_arg_in, W
00FE  390F  	ANDLW 0x0F
00FF  00CE  	MOVWF FCD_LCDDis_00060_1_pt
0100  300F  	MOVLW 0x0F
0101  05CE  	ANDWF FCD_LCDDis_00060_1_pt, F
0102  184E  	BTFSC FCD_LCDDis_00060_1_pt,0
0103  1407  	BSF gbl_portc,0
0104  18CE  	BTFSC FCD_LCDDis_00060_1_pt,1
0105  1487  	BSF gbl_portc,1
0106  194E  	BTFSC FCD_LCDDis_00060_1_pt,2
0107  1507  	BSF gbl_portc,2
0108  19CE  	BTFSC FCD_LCDDis_00060_1_pt,3
0109  1587  	BSF gbl_portc,3
010A  08CD  	MOVF FCD_LCDDis_00060_arg_mask, F
010B  1D03  	BTFSS STATUS,Z
010C  1607  	BSF gbl_portc,4
010D  300A  	MOVLW 0x0A
010E  00CF  	MOVWF delay_10us_00000_arg_del
010F  203D  	CALL delay_10us_00000
0110  1687  	BSF gbl_portc,5
0111  300A  	MOVLW 0x0A
0112  00CF  	MOVWF delay_10us_00000_arg_del
0113  203D  	CALL delay_10us_00000
0114  1287  	BCF gbl_portc,5
0115  300F  	MOVLW 0x0F
0116  054C  	ANDWF FCD_LCDDis_00060_arg_in, W
0117  00CE  	MOVWF FCD_LCDDis_00060_1_pt
0118  300A  	MOVLW 0x0A
0119  00CF  	MOVWF delay_10us_00000_arg_del
011A  203D  	CALL delay_10us_00000
011B  1007  	BCF gbl_portc,0
011C  1087  	BCF gbl_portc,1
011D  1107  	BCF gbl_portc,2
011E  1187  	BCF gbl_portc,3
011F  1207  	BCF gbl_portc,4
0120  1287  	BCF gbl_portc,5
0121  184E  	BTFSC FCD_LCDDis_00060_1_pt,0
0122  1407  	BSF gbl_portc,0
0123  18CE  	BTFSC FCD_LCDDis_00060_1_pt,1
0124  1487  	BSF gbl_portc,1
0125  194E  	BTFSC FCD_LCDDis_00060_1_pt,2
0126  1507  	BSF gbl_portc,2
0127  19CE  	BTFSC FCD_LCDDis_00060_1_pt,3
0128  1587  	BSF gbl_portc,3
0129  08CD  	MOVF FCD_LCDDis_00060_arg_mask, F
012A  1D03  	BTFSS STATUS,Z
012B  1607  	BSF gbl_portc,4
012C  300A  	MOVLW 0x0A
012D  00CF  	MOVWF delay_10us_00000_arg_del
012E  203D  	CALL delay_10us_00000
012F  1687  	BSF gbl_portc,5
0130  300A  	MOVLW 0x0A
0131  00CF  	MOVWF delay_10us_00000_arg_del
0132  203D  	CALL delay_10us_00000
0133  1287  	BCF gbl_portc,5
0134  300A  	MOVLW 0x0A
0135  00CF  	MOVWF delay_10us_00000_arg_del
0136  203D  	CALL delay_10us_00000
0137  0008  	RETURN
0138        ; } FCD_LCDDisplay0_RawSend function end

	ORG 0x00000138
0138        FCD_LCDDis_00066
0138        ; { FCD_LCDDisplay0_PrintNumber ; function begin
0138  1FC8  	BTFSS FCD_LCDDis_00066_arg_Number+D'1',7
0139  2947  	GOTO	label16
013A  302D  	MOVLW 0x2D
013B  00CC  	MOVWF FCD_LCDDis_00060_arg_in
013C  3010  	MOVLW 0x10
013D  00CD  	MOVWF FCD_LCDDis_00060_arg_mask
013E  20F7  	CALL FCD_LCDDis_00060
013F  0847  	MOVF FCD_LCDDis_00066_arg_Number, W
0140  3C00  	SUBLW 0x00
0141  00CC  	MOVWF CompTempVar2230
0142  09C8  	COMF FCD_LCDDis_00066_arg_Number+D'1', F
0143  1803  	BTFSC STATUS,C
0144  0AC8  	INCF FCD_LCDDis_00066_arg_Number+D'1', F
0145  084C  	MOVF CompTempVar2230, W
0146  00C7  	MOVWF FCD_LCDDis_00066_arg_Number
0147        label16
0147  0847  	MOVF FCD_LCDDis_00066_arg_Number, W
0148  00C9  	MOVWF FCD_LCDDis_00066_1_tmp_int
0149  0848  	MOVF FCD_LCDDis_00066_arg_Number+D'1', W
014A  00CA  	MOVWF FCD_LCDDis_00066_1_tmp_int+D'1'
014B  3027  	MOVLW 0x27
014C  0248  	SUBWF FCD_LCDDis_00066_arg_Number+D'1', W
014D  1D03  	BTFSS STATUS,Z
014E  2951  	GOTO	label17
014F  3010  	MOVLW 0x10
0150  0247  	SUBWF FCD_LCDDis_00066_arg_Number, W
0151        label17
0151  1C03  	BTFSS STATUS,C
0152  297F  	GOTO	label21
0153  1BC8  	BTFSC FCD_LCDDis_00066_arg_Number+D'1',7
0154  297F  	GOTO	label21
0155  01D0  	CLRF CompTempVar2233
0156  0849  	MOVF FCD_LCDDis_00066_1_tmp_int, W
0157  00CC  	MOVWF __div_16_1_00003_arg_a
0158  084A  	MOVF FCD_LCDDis_00066_1_tmp_int+D'1', W
0159  00CD  	MOVWF __div_16_1_00003_arg_a+D'1'
015A  1FCA  	BTFSS FCD_LCDDis_00066_1_tmp_int+D'1',7
015B  2962  	GOTO	label18
015C  09CC  	COMF __div_16_1_00003_arg_a, F
015D  09CD  	COMF __div_16_1_00003_arg_a+D'1', F
015E  0ACC  	INCF __div_16_1_00003_arg_a, F
015F  1903  	BTFSC STATUS,Z
0160  0ACD  	INCF __div_16_1_00003_arg_a+D'1', F
0161  0AD0  	INCF CompTempVar2233, F
0162        label18
0162  3010  	MOVLW 0x10
0163  00CE  	MOVWF __div_16_1_00003_arg_b
0164  3027  	MOVLW 0x27
0165  00CF  	MOVWF __div_16_1_00003_arg_b+D'1'
0166  205A  	CALL __div_16_1_00003
0167  0855  	MOVF CompTempVarRet214, W
0168  00CB  	MOVWF FCD_LCDDis_00066_1_tmp_byte
0169  1C50  	BTFSS CompTempVar2233,0
016A  296D  	GOTO	label19
016B  09CB  	COMF FCD_LCDDis_00066_1_tmp_byte, F
016C  0ACB  	INCF FCD_LCDDis_00066_1_tmp_byte, F
016D        label19
016D  084B  	MOVF FCD_LCDDis_00066_1_tmp_byte, W
016E  3E30  	ADDLW 0x30
016F  00CC  	MOVWF FCD_LCDDis_00060_arg_in
0170  3010  	MOVLW 0x10
0171  00CD  	MOVWF FCD_LCDDis_00060_arg_mask
0172  20F7  	CALL FCD_LCDDis_00060
0173        label20
0173  084B  	MOVF FCD_LCDDis_00066_1_tmp_byte, W
0174  3C00  	SUBLW 0x00
0175  1803  	BTFSC STATUS,C
0176  297F  	GOTO	label21
0177  3010  	MOVLW 0x10
0178  02C9  	SUBWF FCD_LCDDis_00066_1_tmp_int, F
0179  3027  	MOVLW 0x27
017A  1C03  	BTFSS STATUS,C
017B  3028  	MOVLW 0x28
017C  02CA  	SUBWF FCD_LCDDis_00066_1_tmp_int+D'1', F
017D  03CB  	DECF FCD_LCDDis_00066_1_tmp_byte, F
017E  2973  	GOTO	label20
017F        label21
017F  3003  	MOVLW 0x03
0180  0248  	SUBWF FCD_LCDDis_00066_arg_Number+D'1', W
0181  1D03  	BTFSS STATUS,Z
0182  2985  	GOTO	label22
0183  30E8  	MOVLW 0xE8
0184  0247  	SUBWF FCD_LCDDis_00066_arg_Number, W
0185        label22
0185  1C03  	BTFSS STATUS,C
0186  29B5  	GOTO	label26
0187  1BC8  	BTFSC FCD_LCDDis_00066_arg_Number+D'1',7
0188  29B5  	GOTO	label26
0189  01D1  	CLRF CompTempVar2237
018A  0849  	MOVF FCD_LCDDis_00066_1_tmp_int, W
018B  00CC  	MOVWF __div_16_1_00003_arg_a
018C  084A  	MOVF FCD_LCDDis_00066_1_tmp_int+D'1', W
018D  00CD  	MOVWF __div_16_1_00003_arg_a+D'1'
018E  1FCA  	BTFSS FCD_LCDDis_00066_1_tmp_int+D'1',7
018F  2996  	GOTO	label23
0190  09CC  	COMF __div_16_1_00003_arg_a, F
0191  09CD  	COMF __div_16_1_00003_arg_a+D'1', F
0192  0ACC  	INCF __div_16_1_00003_arg_a, F
0193  1903  	BTFSC STATUS,Z
0194  0ACD  	INCF __div_16_1_00003_arg_a+D'1', F
0195  0AD1  	INCF CompTempVar2237, F
0196        label23
0196  30E8  	MOVLW 0xE8
0197  00CE  	MOVWF __div_16_1_00003_arg_b
0198  3003  	MOVLW 0x03
0199  00CF  	MOVWF __div_16_1_00003_arg_b+D'1'
019A  205A  	CALL __div_16_1_00003
019B  0855  	MOVF CompTempVarRet214, W
019C  00D0  	MOVWF CompTempVar2236
019D  1C51  	BTFSS CompTempVar2237,0
019E  29A1  	GOTO	label24
019F  09D0  	COMF CompTempVar2236, F
01A0  0AD0  	INCF CompTempVar2236, F
01A1        label24
01A1  0850  	MOVF CompTempVar2236, W
01A2  00CB  	MOVWF FCD_LCDDis_00066_1_tmp_byte
01A3  084B  	MOVF FCD_LCDDis_00066_1_tmp_byte, W
01A4  3E30  	ADDLW 0x30
01A5  00CC  	MOVWF FCD_LCDDis_00060_arg_in
01A6  3010  	MOVLW 0x10
01A7  00CD  	MOVWF FCD_LCDDis_00060_arg_mask
01A8  20F7  	CALL FCD_LCDDis_00060
01A9        label25
01A9  084B  	MOVF FCD_LCDDis_00066_1_tmp_byte, W
01AA  3C00  	SUBLW 0x00
01AB  1803  	BTFSC STATUS,C
01AC  29B5  	GOTO	label26
01AD  30E8  	MOVLW 0xE8
01AE  02C9  	SUBWF FCD_LCDDis_00066_1_tmp_int, F
01AF  3003  	MOVLW 0x03
01B0  1C03  	BTFSS STATUS,C
01B1  3004  	MOVLW 0x04
01B2  02CA  	SUBWF FCD_LCDDis_00066_1_tmp_int+D'1', F
01B3  03CB  	DECF FCD_LCDDis_00066_1_tmp_byte, F
01B4  29A9  	GOTO	label25
01B5        label26
01B5  0848  	MOVF FCD_LCDDis_00066_arg_Number+D'1', W
01B6  3A80  	XORLW 0x80
01B7  00CC  	MOVWF CompTempVar2240
01B8  3080  	MOVLW 0x80
01B9  024C  	SUBWF CompTempVar2240, W
01BA  1D03  	BTFSS STATUS,Z
01BB  29BE  	GOTO	label27
01BC  3064  	MOVLW 0x64
01BD  0247  	SUBWF FCD_LCDDis_00066_arg_Number, W
01BE        label27
01BE  1C03  	BTFSS STATUS,C
01BF  29EA  	GOTO	label31
01C0  01D1  	CLRF CompTempVar2242
01C1  0849  	MOVF FCD_LCDDis_00066_1_tmp_int, W
01C2  00CC  	MOVWF __div_16_1_00003_arg_a
01C3  084A  	MOVF FCD_LCDDis_00066_1_tmp_int+D'1', W
01C4  00CD  	MOVWF __div_16_1_00003_arg_a+D'1'
01C5  1FCA  	BTFSS FCD_LCDDis_00066_1_tmp_int+D'1',7
01C6  29CD  	GOTO	label28
01C7  09CC  	COMF __div_16_1_00003_arg_a, F
01C8  09CD  	COMF __div_16_1_00003_arg_a+D'1', F
01C9  0ACC  	INCF __div_16_1_00003_arg_a, F
01CA  1903  	BTFSC STATUS,Z
01CB  0ACD  	INCF __div_16_1_00003_arg_a+D'1', F
01CC  0AD1  	INCF CompTempVar2242, F
01CD        label28
01CD  3064  	MOVLW 0x64
01CE  00CE  	MOVWF __div_16_1_00003_arg_b
01CF  01CF  	CLRF __div_16_1_00003_arg_b+D'1'
01D0  205A  	CALL __div_16_1_00003
01D1  0855  	MOVF CompTempVarRet214, W
01D2  00D0  	MOVWF CompTempVar2241
01D3  1C51  	BTFSS CompTempVar2242,0
01D4  29D7  	GOTO	label29
01D5  09D0  	COMF CompTempVar2241, F
01D6  0AD0  	INCF CompTempVar2241, F
01D7        label29
01D7  0850  	MOVF CompTempVar2241, W
01D8  00CB  	MOVWF FCD_LCDDis_00066_1_tmp_byte
01D9  084B  	MOVF FCD_LCDDis_00066_1_tmp_byte, W
01DA  3E30  	ADDLW 0x30
01DB  00CC  	MOVWF FCD_LCDDis_00060_arg_in
01DC  3010  	MOVLW 0x10
01DD  00CD  	MOVWF FCD_LCDDis_00060_arg_mask
01DE  20F7  	CALL FCD_LCDDis_00060
01DF        label30
01DF  084B  	MOVF FCD_LCDDis_00066_1_tmp_byte, W
01E0  3C00  	SUBLW 0x00
01E1  1803  	BTFSC STATUS,C
01E2  29EA  	GOTO	label31
01E3  3064  	MOVLW 0x64
01E4  02C9  	SUBWF FCD_LCDDis_00066_1_tmp_int, F
01E5  08CA  	MOVF FCD_LCDDis_00066_1_tmp_int+D'1', F
01E6  1C03  	BTFSS STATUS,C
01E7  03CA  	DECF FCD_LCDDis_00066_1_tmp_int+D'1', F
01E8  03CB  	DECF FCD_LCDDis_00066_1_tmp_byte, F
01E9  29DF  	GOTO	label30
01EA        label31
01EA  0848  	MOVF FCD_LCDDis_00066_arg_Number+D'1', W
01EB  3A80  	XORLW 0x80
01EC  00CC  	MOVWF CompTempVar2245
01ED  3080  	MOVLW 0x80
01EE  024C  	SUBWF CompTempVar2245, W
01EF  1D03  	BTFSS STATUS,Z
01F0  29F3  	GOTO	label32
01F1  300A  	MOVLW 0x0A
01F2  0247  	SUBWF FCD_LCDDis_00066_arg_Number, W
01F3        label32
01F3  1C03  	BTFSS STATUS,C
01F4  2A1F  	GOTO	label36
01F5  01D1  	CLRF CompTempVar2247
01F6  0849  	MOVF FCD_LCDDis_00066_1_tmp_int, W
01F7  00CC  	MOVWF __div_16_1_00003_arg_a
01F8  084A  	MOVF FCD_LCDDis_00066_1_tmp_int+D'1', W
01F9  00CD  	MOVWF __div_16_1_00003_arg_a+D'1'
01FA  1FCA  	BTFSS FCD_LCDDis_00066_1_tmp_int+D'1',7
01FB  2A02  	GOTO	label33
01FC  09CC  	COMF __div_16_1_00003_arg_a, F
01FD  09CD  	COMF __div_16_1_00003_arg_a+D'1', F
01FE  0ACC  	INCF __div_16_1_00003_arg_a, F
01FF  1903  	BTFSC STATUS,Z
0200  0ACD  	INCF __div_16_1_00003_arg_a+D'1', F
0201  0AD1  	INCF CompTempVar2247, F
0202        label33
0202  300A  	MOVLW 0x0A
0203  00CE  	MOVWF __div_16_1_00003_arg_b
0204  01CF  	CLRF __div_16_1_00003_arg_b+D'1'
0205  205A  	CALL __div_16_1_00003
0206  0855  	MOVF CompTempVarRet214, W
0207  00D0  	MOVWF CompTempVar2246
0208  1C51  	BTFSS CompTempVar2247,0
0209  2A0C  	GOTO	label34
020A  09D0  	COMF CompTempVar2246, F
020B  0AD0  	INCF CompTempVar2246, F
020C        label34
020C  0850  	MOVF CompTempVar2246, W
020D  00CB  	MOVWF FCD_LCDDis_00066_1_tmp_byte
020E  084B  	MOVF FCD_LCDDis_00066_1_tmp_byte, W
020F  3E30  	ADDLW 0x30
0210  00CC  	MOVWF FCD_LCDDis_00060_arg_in
0211  3010  	MOVLW 0x10
0212  00CD  	MOVWF FCD_LCDDis_00060_arg_mask
0213  20F7  	CALL FCD_LCDDis_00060
0214        label35
0214  084B  	MOVF FCD_LCDDis_00066_1_tmp_byte, W
0215  3C00  	SUBLW 0x00
0216  1803  	BTFSC STATUS,C
0217  2A1F  	GOTO	label36
0218  300A  	MOVLW 0x0A
0219  02C9  	SUBWF FCD_LCDDis_00066_1_tmp_int, F
021A  08CA  	MOVF FCD_LCDDis_00066_1_tmp_int+D'1', F
021B  1C03  	BTFSS STATUS,C
021C  03CA  	DECF FCD_LCDDis_00066_1_tmp_int+D'1', F
021D  03CB  	DECF FCD_LCDDis_00066_1_tmp_byte, F
021E  2A14  	GOTO	label35
021F        label36
021F  0849  	MOVF FCD_LCDDis_00066_1_tmp_int, W
0220  3E30  	ADDLW 0x30
0221  00CC  	MOVWF FCD_LCDDis_00060_arg_in
0222  3010  	MOVLW 0x10
0223  00CD  	MOVWF FCD_LCDDis_00060_arg_mask
0224  20F7  	CALL FCD_LCDDis_00060
0225  0008  	RETURN
0226        ; } FCD_LCDDisplay0_PrintNumber function end

	ORG 0x00000226
0226        FCD_LCDDis_00062
0226        ; { FCD_LCDDisplay0_Clear ; function begin
0226  3001  	MOVLW 0x01
0227  1283  	BCF STATUS, RP0
0228  1303  	BCF STATUS, RP1
0229  00CC  	MOVWF FCD_LCDDis_00060_arg_in
022A  01CD  	CLRF FCD_LCDDis_00060_arg_mask
022B  20F7  	CALL FCD_LCDDis_00060
022C  3002  	MOVLW 0x02
022D  00C7  	MOVWF Wdt_Delay__0003E_arg_delay
022E  2079  	CALL Wdt_Delay__0003E
022F  3002  	MOVLW 0x02
0230  00CC  	MOVWF FCD_LCDDis_00060_arg_in
0231  01CD  	CLRF FCD_LCDDis_00060_arg_mask
0232  20F7  	CALL FCD_LCDDis_00060
0233  3002  	MOVLW 0x02
0234  00C7  	MOVWF Wdt_Delay__0003E_arg_delay
0235  2079  	CALL Wdt_Delay__0003E
0236  0008  	RETURN
0237        ; } FCD_LCDDisplay0_Clear function end

	ORG 0x00000237
0237        FCD_LCDDis_00061
0237        ; { FCD_LCDDisplay0_Start ; function begin
0237  1683  	BSF STATUS, RP0
0238  1303  	BCF STATUS, RP1
0239  1007  	BCF gbl_trisc,0
023A  1283  	BCF STATUS, RP0
023B  1007  	BCF gbl_portc,0
023C  1683  	BSF STATUS, RP0
023D  1087  	BCF gbl_trisc,1
023E  1283  	BCF STATUS, RP0
023F  1087  	BCF gbl_portc,1
0240  1683  	BSF STATUS, RP0
0241  1107  	BCF gbl_trisc,2
0242  1283  	BCF STATUS, RP0
0243  1107  	BCF gbl_portc,2
0244  1683  	BSF STATUS, RP0
0245  1187  	BCF gbl_trisc,3
0246  1283  	BCF STATUS, RP0
0247  1187  	BCF gbl_portc,3
0248  1683  	BSF STATUS, RP0
0249  1207  	BCF gbl_trisc,4
024A  1283  	BCF STATUS, RP0
024B  1207  	BCF gbl_portc,4
024C  1683  	BSF STATUS, RP0
024D  1287  	BCF gbl_trisc,5
024E  1283  	BCF STATUS, RP0
024F  1287  	BCF gbl_portc,5
0250  300C  	MOVLW 0x0C
0251  00C7  	MOVWF Wdt_Delay__0003E_arg_delay
0252  2079  	CALL Wdt_Delay__0003E
0253  3033  	MOVLW 0x33
0254  00CC  	MOVWF FCD_LCDDis_00060_arg_in
0255  01CD  	CLRF FCD_LCDDis_00060_arg_mask
0256  20F7  	CALL FCD_LCDDis_00060
0257  3002  	MOVLW 0x02
0258  00C7  	MOVWF Wdt_Delay__0003E_arg_delay
0259  2079  	CALL Wdt_Delay__0003E
025A  3033  	MOVLW 0x33
025B  00CC  	MOVWF FCD_LCDDis_00060_arg_in
025C  01CD  	CLRF FCD_LCDDis_00060_arg_mask
025D  20F7  	CALL FCD_LCDDis_00060
025E  3002  	MOVLW 0x02
025F  00C7  	MOVWF Wdt_Delay__0003E_arg_delay
0260  2079  	CALL Wdt_Delay__0003E
0261  3032  	MOVLW 0x32
0262  00CC  	MOVWF FCD_LCDDis_00060_arg_in
0263  01CD  	CLRF FCD_LCDDis_00060_arg_mask
0264  20F7  	CALL FCD_LCDDis_00060
0265  3002  	MOVLW 0x02
0266  00C7  	MOVWF Wdt_Delay__0003E_arg_delay
0267  2079  	CALL Wdt_Delay__0003E
0268  302C  	MOVLW 0x2C
0269  00CC  	MOVWF FCD_LCDDis_00060_arg_in
026A  01CD  	CLRF FCD_LCDDis_00060_arg_mask
026B  20F7  	CALL FCD_LCDDis_00060
026C  3002  	MOVLW 0x02
026D  00C7  	MOVWF Wdt_Delay__0003E_arg_delay
026E  2079  	CALL Wdt_Delay__0003E
026F  3006  	MOVLW 0x06
0270  00CC  	MOVWF FCD_LCDDis_00060_arg_in
0271  01CD  	CLRF FCD_LCDDis_00060_arg_mask
0272  20F7  	CALL FCD_LCDDis_00060
0273  3002  	MOVLW 0x02
0274  00C7  	MOVWF Wdt_Delay__0003E_arg_delay
0275  2079  	CALL Wdt_Delay__0003E
0276  300C  	MOVLW 0x0C
0277  00CC  	MOVWF FCD_LCDDis_00060_arg_in
0278  01CD  	CLRF FCD_LCDDis_00060_arg_mask
0279  20F7  	CALL FCD_LCDDis_00060
027A  3002  	MOVLW 0x02
027B  00C7  	MOVWF Wdt_Delay__0003E_arg_delay
027C  2079  	CALL Wdt_Delay__0003E
027D  3001  	MOVLW 0x01
027E  00CC  	MOVWF FCD_LCDDis_00060_arg_in
027F  01CD  	CLRF FCD_LCDDis_00060_arg_mask
0280  20F7  	CALL FCD_LCDDis_00060
0281  3002  	MOVLW 0x02
0282  00C7  	MOVWF Wdt_Delay__0003E_arg_delay
0283  2079  	CALL Wdt_Delay__0003E
0284  3002  	MOVLW 0x02
0285  00CC  	MOVWF FCD_LCDDis_00060_arg_in
0286  01CD  	CLRF FCD_LCDDis_00060_arg_mask
0287  20F7  	CALL FCD_LCDDis_00060
0288  3002  	MOVLW 0x02
0289  00C7  	MOVWF Wdt_Delay__0003E_arg_delay
028A  2079  	CALL Wdt_Delay__0003E
028B  0008  	RETURN
028C        ; } FCD_LCDDisplay0_Start function end

	ORG 0x0000028C
028C        FCD_ADC0_R_00055
028C        ; { FCD_ADC0_ReadAsByte ; function begin
028C  1283  	BCF STATUS, RP0
028D  1303  	BCF STATUS, RP1
028E  01C8  	CLRF FC_CAL_Ena_00051_arg_Channel
028F  3003  	MOVLW 0x03
0290  00C9  	MOVWF FC_CAL_Ena_00051_arg_Conv_Speed
0291  01CA  	CLRF FC_CAL_Ena_00051_arg_Vref
0292  3028  	MOVLW 0x28
0293  00CB  	MOVWF FC_CAL_Ena_00051_arg_T_Charge
0294  20A8  	CALL FC_CAL_Ena_00051
0295  01C8  	CLRF FC_CAL_Sam_00052_arg_Sample_Mode
0296  2084  	CALL FC_CAL_Sam_00052
0297  084B  	MOVF CompTempVarRet2195, W
0298  00C7  	MOVWF FCD_ADC0_R_00055_1_retVal
0299  20E8  	CALL FC_CAL_Dis_00053
029A  0847  	MOVF FCD_ADC0_R_00055_1_retVal, W
029B  00C8  	MOVWF CompTempVarRet2201
029C  0008  	RETURN
029D        ; } FCD_ADC0_ReadAsByte function end

	ORG 0x0000029D
029D        main
029D        ; { main ; function begin
029D  3007  	MOVLW 0x07
029E  1683  	BSF STATUS, RP0
029F  1303  	BCF STATUS, RP1
02A0  009F  	MOVWF gbl_adcon1
02A1  30C0  	MOVLW 0xC0
02A2  0081  	MOVWF gbl_option_reg
02A3  2237  	CALL FCD_LCDDis_00061
02A4  30FE  	MOVLW 0xFE
02A5  1683  	BSF STATUS, RP0
02A6  0508  	ANDWF gbl_trisd, W
02A7  0088  	MOVWF gbl_trisd
02A8  30FE  	MOVLW 0xFE
02A9  1283  	BCF STATUS, RP0
02AA  0508  	ANDWF gbl_portd, W
02AB  0088  	MOVWF gbl_portd
02AC        label37
02AC  228C  	CALL FCD_ADC0_R_00055
02AD  0848  	MOVF CompTempVarRet2201, W
02AE  00C4  	MOVWF gbl_FCV_VOLTAGE
02AF  2226  	CALL FCD_LCDDis_00062
02B0  0844  	MOVF gbl_FCV_VOLTAGE, W
02B1  00C7  	MOVWF FCD_LCDDis_00066_arg_Number
02B2  01C8  	CLRF FCD_LCDDis_00066_arg_Number+D'1'
02B3  2138  	CALL FCD_LCDDis_00066
02B4  3001  	MOVLW 0x01
02B5  00C7  	MOVWF delay_s_00000_arg_del
02B6  204B  	CALL delay_s_00000
02B7  2AAC  	GOTO	label37
02B8        ; } main function end

	ORG 0x000002B8
02B8        _startup
02B8  30D5  	MOVLW 0xD5
02B9  1283  	BCF STATUS, RP0
02BA  1303  	BCF STATUS, RP1
02BB  00A0  	MOVWF gbl_14_LSR
02BC  30C4  	MOVLW 0xC4
02BD  00A1  	MOVWF gbl_14_LSR+D'1'
02BE  30BB  	MOVLW 0xBB
02BF  00A2  	MOVWF gbl_14_LSR+D'2'
02C0  30DC  	MOVLW 0xDC
02C1  00A3  	MOVWF gbl_14_LSR+D'3'
02C2  01A4  	CLRF gbl_15_gbl_aSig
02C3  01A5  	CLRF gbl_15_gbl_aSig+D'1'
02C4  01A6  	CLRF gbl_15_gbl_aSig+D'2'
02C5  01A7  	CLRF gbl_15_gbl_aSig+D'3'
02C6  01A8  	CLRF gbl_15_gbl_bSig
02C7  01A9  	CLRF gbl_15_gbl_bSig+D'1'
02C8  01AA  	CLRF gbl_15_gbl_bSig+D'2'
02C9  01AB  	CLRF gbl_15_gbl_bSig+D'3'
02CA  01AC  	CLRF gbl_15_gbl_zSig
02CB  01AD  	CLRF gbl_15_gbl_zSig+D'1'
02CC  01AE  	CLRF gbl_15_gbl_zSig+D'2'
02CD  01AF  	CLRF gbl_15_gbl_zSig+D'3'
02CE  01BE  	CLRF gbl_15_gbl_aExp
02CF  01BF  	CLRF gbl_15_gbl_bExp
02D0  01B7  	CLRF gbl_15_gbl_zExp
02D1  01B8  	CLRF gbl_15_gbl_zExp+D'1'
02D2  01C0  	CLRF gbl_15_gbl_aSign
02D3  01C1  	CLRF gbl_15_gbl_bSign
02D4  01C2  	CLRF gbl_15_gbl_zSign
02D5  01C3  	CLRF gbl_15_gbl_zSigZero
02D6  01B0  	CLRF gbl_15_gbl_ret
02D7  01B1  	CLRF gbl_15_gbl_ret+D'1'
02D8  01B2  	CLRF gbl_15_gbl_ret+D'2'
02D9  01B3  	CLRF gbl_15_gbl_ret+D'3'
02DA  01BC  	CLRF gbl_float_rounding_mode
02DB  01BD  	CLRF gbl_float_exception_flags
02DC  01BB  	CLRF gbl_float_detect_tininess
02DD  118A  	BCF PCLATH,3
02DE  120A  	BCF PCLATH,4
02DF  2A9D  	GOTO	main
	ORG 0x000002E0
02E0        interrupt
02E0        ; { interrupt ; function begin
02E0  1283  	BCF STATUS, RP0
02E1  1303  	BCF STATUS, RP1
02E2  0E36  	SWAPF Int1BContext+D'2', W
02E3  0084  	MOVWF FSR
02E4  0E35  	SWAPF Int1BContext+D'1', W
02E5  008A  	MOVWF PCLATH
02E6  0E34  	SWAPF Int1BContext, W
02E7  0083  	MOVWF STATUS
02E8  0EFF  	SWAPF Int1Context, F
02E9  0E7F  	SWAPF Int1Context, W
02EA  0009  	RETFIE
02EB        ; } interrupt function end

	ORG 0x00002007
2007  3F7A  	DW 0x3F7A
